target datalayout = "e-m:e-p270:32:32-p271:32:32-p272:64:64-i64:64-i128:128-f80:128-n8:16:32:64-S128"
target triple = "x86_64-pc-linux-gnu"

%union.SDL_Event = type { %struct.SDL_MouseWheelEvent, [72 x i8] }
%struct.SDL_MouseWheelEvent = type { i32, i32, i64, i32, i32, float, float, i32, float, float, i32, i32 }
%struct.SDL_KeyboardInstance = type { i32, ptr }
%struct.SDL_KeyboardDeviceEvent = type { i32, i32, i64, i32 }

@SDL_keyboards = internal global ptr null, align 8
@SDL_keyboard_count = internal global i32 0, align 4

; Function Attrs: nounwind uwtable
define internal i32 @SDL_GetKeyboardIndex(i32 noundef %0) #0 {
  %2 = alloca i32, align 4
  %3 = alloca i32, align 4
  %4 = alloca i32, align 4
  %5 = alloca i32, align 4
  store i32 %0, ptr %3, align 4
  call void @llvm.lifetime.start.p0(i64 4, ptr %4) #6
  store i32 0, ptr %4, align 4
  br label %6

6:                                                ; preds = %23, %1
  %7 = load i32, ptr %4, align 4
  %8 = load i32, ptr @SDL_keyboard_count, align 4
  %9 = icmp slt i32 %7, %8
  br i1 %9, label %11, label %10

10:                                               ; preds = %6
  store i32 2, ptr %5, align 4
  br label %26

11:                                               ; preds = %6
  %12 = load i32, ptr %3, align 4
  %13 = load ptr, ptr @SDL_keyboards, align 8
  %14 = load i32, ptr %4, align 4
  %15 = sext i32 %14 to i64
  %16 = getelementptr inbounds %struct.SDL_KeyboardInstance, ptr %13, i64 %15
  %17 = getelementptr inbounds nuw %struct.SDL_KeyboardInstance, ptr %16, i32 0, i32 0
  %18 = load i32, ptr %17, align 8
  %19 = icmp eq i32 %12, %18
  br i1 %19, label %20, label %22

20:                                               ; preds = %11
  %21 = load i32, ptr %4, align 4
  store i32 %21, ptr %2, align 4
  store i32 1, ptr %5, align 4
  br label %26

22:                                               ; preds = %11
  br label %23

23:                                               ; preds = %22
  %24 = load i32, ptr %4, align 4
  %25 = add nsw i32 %24, 1
  store i32 %25, ptr %4, align 4
  br label %6, !llvm.loop !5

26:                                               ; preds = %20, %10
  call void @llvm.lifetime.end.p0(i64 4, ptr %4) #6
  %27 = load i32, ptr %5, align 4
  switch i32 %27, label %31 [
    i32 2, label %28
    i32 1, label %29
  ]

28:                                               ; preds = %26
  store i32 -1, ptr %2, align 4
  br label %29

29:                                               ; preds = %28, %26
  %30 = load i32, ptr %2, align 4
  ret i32 %30

31:                                               ; preds = %26
  unreachable
}

; Function Attrs: nounwind uwtable
define hidden void @SDL_RemoveKeyboard(i32 noundef %0, i1 noundef zeroext %1) #0 {
  %3 = alloca i32, align 4
  %4 = alloca i8, align 1
  %5 = alloca i32, align 4
  %6 = alloca i32, align 4
  %7 = alloca %union.SDL_Event, align 8
  store i32 %0, ptr %3, align 4
  %8 = zext i1 %1 to i8
  store i8 %8, ptr %4, align 1
  call void @llvm.lifetime.start.p0(i64 4, ptr %5) #6
  %9 = load i32, ptr %3, align 4
  %10 = call i32 @SDL_GetKeyboardIndex(i32 noundef %9)
  store i32 %10, ptr %5, align 4
  %11 = load i32, ptr %5, align 4
  %12 = icmp slt i32 %11, 0
  br i1 %12, label %13, label %14

13:                                               ; preds = %2
  store i32 1, ptr %6, align 4
  br label %51

14:                                               ; preds = %2
  %15 = load ptr, ptr @SDL_keyboards, align 8
  %16 = load i32, ptr %5, align 4
  %17 = sext i32 %16 to i64
  %18 = getelementptr inbounds %struct.SDL_KeyboardInstance, ptr %15, i64 %17
  %19 = getelementptr inbounds nuw %struct.SDL_KeyboardInstance, ptr %18, i32 0, i32 1
  %20 = load ptr, ptr %19, align 8
  call void @SDL_free_REAL(ptr noundef %20)
  %21 = load i32, ptr %5, align 4
  %22 = load i32, ptr @SDL_keyboard_count, align 4
  %23 = sub nsw i32 %22, 1
  %24 = icmp ne i32 %21, %23
  br i1 %24, label %25, label %41

25:                                               ; preds = %14
  %26 = load ptr, ptr @SDL_keyboards, align 8
  %27 = load i32, ptr %5, align 4
  %28 = sext i32 %27 to i64
  %29 = getelementptr inbounds %struct.SDL_KeyboardInstance, ptr %26, i64 %28
  %30 = load ptr, ptr @SDL_keyboards, align 8
  %31 = load i32, ptr %5, align 4
  %32 = add nsw i32 %31, 1
  %33 = sext i32 %32 to i64
  %34 = getelementptr inbounds %struct.SDL_KeyboardInstance, ptr %30, i64 %33
  %35 = load i32, ptr @SDL_keyboard_count, align 4
  %36 = load i32, ptr %5, align 4
  %37 = sub nsw i32 %35, %36
  %38 = sub nsw i32 %37, 1
  %39 = sext i32 %38 to i64
  %40 = mul i64 %39, 16
  call void @llvm.memmove.p0.p0.i64(ptr align 8 %29, ptr align 8 %34, i64 %40, i1 false)
  br label %41

41:                                               ; preds = %25, %14
  %42 = load i32, ptr @SDL_keyboard_count, align 4
  %43 = add nsw i32 %42, -1
  store i32 %43, ptr @SDL_keyboard_count, align 4
  %44 = load i8, ptr %4, align 1, !range !3, !noundef !4
  %45 = trunc i8 %44 to i1
  br i1 %45, label %46, label %50

46:                                               ; preds = %41
  call void @llvm.lifetime.start.p0(i64 128, ptr %7) #6
  call void @llvm.memset.p0.i64(ptr align 8 %7, i8 0, i64 128, i1 false)
  store i32 774, ptr %7, align 8
  %47 = load i32, ptr %3, align 4
  %48 = getelementptr inbounds nuw %struct.SDL_KeyboardDeviceEvent, ptr %7, i32 0, i32 3
  store i32 %47, ptr %48, align 8
  %49 = call zeroext i1 @SDL_PushEvent_REAL(ptr noundef %7)
  call void @llvm.lifetime.end.p0(i64 128, ptr %7) #6
  br label %50

50:                                               ; preds = %46, %41
  store i32 0, ptr %6, align 4
  br label %51

51:                                               ; preds = %50, %13
  call void @llvm.lifetime.end.p0(i64 4, ptr %5) #6
  %52 = load i32, ptr %6, align 4
  switch i32 %52, label %54 [
    i32 0, label %53
    i32 1, label %53
  ]

53:                                               ; preds = %51, %51
  ret void

54:                                               ; preds = %51
  unreachable
}