; Function Attrs: nounwind uwtable
define hidden void @SDL_RemoveKeyboard(i32 noundef %0, i1 noundef zeroext %1) local_unnamed_addr #0 {
  %3 = alloca %union.SDL_Event, align 8
  %4 = load i32, ptr @SDL_keyboard_count, align 4
  %.not9.i = icmp sgt i32 %4, 0
  br i1 %.not9.i, label %.lr.ph.i, label %SDL_GetKeyboardIndex.exit.thread

.lr.ph.i:                                         ; preds = %2
  %5 = load ptr, ptr @SDL_keyboards, align 8
  %wide.trip.count.i = zext nneg i32 %4 to i64
  br label %6

6:                                                ; preds = %10, %.lr.ph.i
  %indvars.iv.i = phi i64 [ 0, %.lr.ph.i ], [ %indvars.iv.next.i, %10 ]
  %7 = getelementptr inbounds nuw %struct.SDL_KeyboardInstance, ptr %5, i64 %indvars.iv.i
  %8 = load i32, ptr %7, align 8
  %9 = icmp eq i32 %0, %8
  br i1 %9, label %SDL_GetKeyboardIndex.exit, label %10

10:                                               ; preds = %6
  %indvars.iv.next.i = add nuw nsw i64 %indvars.iv.i, 1
  %exitcond.not.i = icmp eq i64 %indvars.iv.next.i, %wide.trip.count.i
  br i1 %exitcond.not.i, label %SDL_GetKeyboardIndex.exit.thread, label %6, !llvm.loop !3

SDL_GetKeyboardIndex.exit:                        ; preds = %6
  %11 = trunc nuw nsw i64 %indvars.iv.i to i32
  %12 = and i64 %indvars.iv.i, 4294967295
  %13 = getelementptr inbounds nuw %struct.SDL_KeyboardInstance, ptr %5, i64 %12, i32 1
  %14 = load ptr, ptr %13, align 8
  tail call void @SDL_free_REAL(ptr noundef %14) #13
  %15 = load i32, ptr @SDL_keyboard_count, align 4
  %16 = add nsw i32 %15, -1
  %.not = icmp eq i32 %16, %11
  br i1 %.not, label %25, label %17

17:                                               ; preds = %SDL_GetKeyboardIndex.exit
  %18 = load ptr, ptr @SDL_keyboards, align 8
  %19 = getelementptr inbounds nuw %struct.SDL_KeyboardInstance, ptr %18, i64 %12
  %20 = getelementptr inbounds nuw i8, ptr %19, i64 16
  %21 = xor i32 %11, -1
  %22 = add i32 %15, %21
  %23 = sext i32 %22 to i64
  %24 = shl nsw i64 %23, 4
  tail call void @llvm.memmove.p0.p0.i64(ptr align 8 %19, ptr nonnull align 8 %20, i64 %24, i1 false)
  br label %25

25:                                               ; preds = %17, %SDL_GetKeyboardIndex.exit
  store i32 %16, ptr @SDL_keyboard_count, align 4
  br i1 %1, label %26, label %SDL_GetKeyboardIndex.exit.thread

26:                                               ; preds = %25
  call void @llvm.lifetime.start.p0(i64 128, ptr nonnull %3) #13
  call void @llvm.memset.p0.i64(ptr noundef nonnull align 8 dereferenceable(128) %3, i8 0, i64 128, i1 false)
  store i32 774, ptr %3, align 8
  %27 = getelementptr inbounds nuw i8, ptr %3, i64 16
  store i32 %0, ptr %27, align 8
  %28 = call zeroext i1 @SDL_PushEvent_REAL(ptr noundef nonnull %3) #13
  call void @llvm.lifetime.end.p0(i64 128, ptr nonnull %3) #13
  br label %SDL_GetKeyboardIndex.exit.thread

SDL_GetKeyboardIndex.exit.thread:                 ; preds = %10, %2, %25, %26
  ret void
}